; ModuleID = '62/1378.c'
source_filename = "62/1378.c"
target datalayout = "e-m:e-p270:32:32-p271:32:32-p272:64:64-i64:64-f80:128-n8:16:32:64-S128"
target triple = "x86_64-pc-linux-gnu"

@.str = private unnamed_addr constant [3 x i8] c"%c\00", align 1

; Function Attrs: noinline nounwind uwtable
define dso_local i8* @getmemory(i32 %0) #0 {
  %2 = alloca i32, align 4
  %3 = alloca i8*, align 8
  store i32 %0, i32* %2, align 4
  %4 = load i32, i32* %2, align 4
  %5 = sext i32 %4 to i64
  %6 = mul i64 %5, 1
  %7 = call noalias i8* @malloc(i64 %6) #4
  store i8* %7, i8** %3, align 8
  %8 = load i8*, i8** %3, align 8
  ret i8* %8
}

; Function Attrs: nounwind
declare dso_local noalias i8* @malloc(i64) #1

; Function Attrs: noinline nounwind uwtable
define dso_local void @main() #0 {
  %1 = alloca i8*, align 8
  %2 = alloca i8*, align 8
  %3 = alloca i8*, align 8
  %4 = alloca i8*, align 8
  %5 = alloca i32, align 4
  %6 = call i8* @getmemory(i32 100)
  store i8* %6, i8** %1, align 8
  %7 = load i8*, i8** %1, align 8
  store i8* %7, i8** %3, align 8
  store i8* %7, i8** %2, align 8
  %8 = load i8*, i8** %1, align 8
  %9 = call i32 (i8*, ...) bitcast (i32 (...)* @gets to i32 (i8*, ...)*)(i8* %8)
  %10 = load i8*, i8** %1, align 8
  %11 = call i64 @strlen(i8* %10) #5
  %12 = trunc i64 %11 to i32
  store i32 %12, i32* %5, align 4
  %13 = load i8*, i8** %3, align 8
  %14 = load i32, i32* %5, align 4
  %15 = sext i32 %14 to i64
  %16 = getelementptr inbounds i8, i8* %13, i64 %15
  store i8* %16, i8** %4, align 8
  %17 = load i8*, i8** %3, align 8
  store i8* %17, i8** %1, align 8
  br label %18

18:                                               ; preds = %59, %0
  %19 = load i8*, i8** %1, align 8
  %20 = load i8*, i8** %4, align 8
  %21 = icmp ult i8* %19, %20
  br i1 %21, label %22, label %60

22:                                               ; preds = %18
  %23 = load i8*, i8** %1, align 8
  %24 = load i8, i8* %23, align 1
  %25 = sext i8 %24 to i32
  %26 = icmp eq i32 %25, 32
  br i1 %26, label %27, label %56

27:                                               ; preds = %22
  %28 = load i8*, i8** %1, align 8
  store i8* %28, i8** %2, align 8
  %29 = load i8*, i8** %2, align 8
  %30 = getelementptr inbounds i8, i8* %29, i64 1
  %31 = load i8, i8* %30, align 1
  %32 = sext i8 %31 to i32
  %33 = icmp eq i32 %32, 32
  br i1 %33, label %34, label %52

34:                                               ; preds = %27
  %35 = load i8*, i8** %1, align 8
  store i8* %35, i8** %2, align 8
  br label %36

36:                                               ; preds = %46, %34
  %37 = load i8*, i8** %2, align 8
  %38 = load i8*, i8** %4, align 8
  %39 = getelementptr inbounds i8, i8* %38, i64 -1
  %40 = icmp ult i8* %37, %39
  br i1 %40, label %41, label %49

41:                                               ; preds = %36
  %42 = load i8*, i8** %2, align 8
  %43 = getelementptr inbounds i8, i8* %42, i64 1
  %44 = load i8, i8* %43, align 1
  %45 = load i8*, i8** %2, align 8
  store i8 %44, i8* %45, align 1
  br label %46

46:                                               ; preds = %41
  %47 = load i8*, i8** %2, align 8
  %48 = getelementptr inbounds i8, i8* %47, i32 1
  store i8* %48, i8** %2, align 8
  br label %36

49:                                               ; preds = %36
  %50 = load i32, i32* %5, align 4
  %51 = sub nsw i32 %50, 1
  store i32 %51, i32* %5, align 4
  br label %55

52:                                               ; preds = %27
  %53 = load i8*, i8** %1, align 8
  %54 = getelementptr inbounds i8, i8* %53, i32 1
  store i8* %54, i8** %1, align 8
  br label %55

55:                                               ; preds = %52, %49
  br label %59

56:                                               ; preds = %22
  %57 = load i8*, i8** %1, align 8
  %58 = getelementptr inbounds i8, i8* %57, i32 1
  store i8* %58, i8** %1, align 8
  br label %59

59:                                               ; preds = %56, %55
  br label %18

60:                                               ; preds = %18
  %61 = load i8*, i8** %3, align 8
  store i8* %61, i8** %2, align 8
  br label %62

62:                                               ; preds = %74, %60
  %63 = load i8*, i8** %2, align 8
  %64 = load i8*, i8** %3, align 8
  %65 = load i32, i32* %5, align 4
  %66 = sext i32 %65 to i64
  %67 = getelementptr inbounds i8, i8* %64, i64 %66
  %68 = icmp ult i8* %63, %67
  br i1 %68, label %69, label %77

69:                                               ; preds = %62
  %70 = load i8*, i8** %2, align 8
  %71 = load i8, i8* %70, align 1
  %72 = sext i8 %71 to i32
  %73 = call i32 (i8*, ...) @printf(i8* getelementptr inbounds ([3 x i8], [3 x i8]* @.str, i64 0, i64 0), i32 %72)
  br label %74

74:                                               ; preds = %69
  %75 = load i8*, i8** %2, align 8
  %76 = getelementptr inbounds i8, i8* %75, i32 1
  store i8* %76, i8** %2, align 8
  br label %62

77:                                               ; preds = %62
  ret void
}

declare dso_local i32 @gets(...) #2

; Function Attrs: nounwind readonly
declare dso_local i64 @strlen(i8*) #3

declare dso_local i32 @printf(i8*, ...) #2


!llvm.module.flags = !{!0}
!llvm.ident = !{!1}

!0 = !{i32 1, !"wchar_size", i32 4}
!1 = !{!"clang version 10.0.0-4ubuntu1 "}
